target datalayout = "e-m:e-p270:32:32-p271:32:32-p272:64:64-i64:64-i128:128-f80:128-n8:16:32:64-S128"
target triple = "x86_64-pc-linux-gnu"

%struct.archive_write = type { %struct.archive, i32, i64, i64, ptr, i64, ptr, ptr, ptr, ptr, ptr, i32, i32, ptr, ptr, ptr, ptr, ptr, ptr, ptr, ptr, ptr, ptr, ptr, ptr, ptr, ptr }
%struct.archive = type { i32, i32, ptr, i32, ptr, i32, i32, ptr, %struct.archive_string, ptr, i32, i32, ptr, ptr, i64, i64, i64, i8, i64 }
%struct.archive_string = type { ptr, i64, i64 }
%struct.iso9660 = type { i64, i32, ptr, ptr, %struct.archive_string, i64, i32, %struct.archive_string, %struct.archive_string, ptr, ptr, %struct.anon, %struct.anon.0, %struct.archive_rb_tree, %struct.vdd, %struct.vdd, i32, i32, i32, %struct.archive_string, %struct.archive_string, %struct.archive_string, %struct.archive_string, %struct.archive_string, %struct.archive_string, %struct.archive_string, i32, %struct.anon.1, ptr, i32, [65536 x i8], i64, i32, i64, i64, i64, %struct.anon.2, %struct.iso_option }
%struct.anon = type { ptr, ptr }
%struct.anon.0 = type { ptr, ptr }
%struct.archive_rb_tree = type { ptr, ptr }
%struct.vdd = type { ptr, i32, ptr, i32, i32, i32, i32, i32, i32 }
%struct.anon.1 = type { i8, [64 x i8], i32, ptr, i64, i32, i32, i64, i64, %struct.z_stream_s, i32, i64, i32 }
%struct.z_stream_s = type { ptr, i32, i64, ptr, i32, i64, ptr, ptr, ptr, ptr, ptr, i32, i64, i64 }
%struct.anon.2 = type { %struct.archive_string, ptr, %struct.archive_string, ptr, i8, %struct.archive_string, i8, i8, i16, i16 }
%struct.iso_option = type { i32 }

@.str.58 = private unnamed_addr constant [30 x i8] c"Can't write to temporary file\00", align 1
@.str.61 = private unnamed_addr constant [52 x i8] c"Internal Programming error: iso9660:wb_set_offset()\00", align 1

; Function Attrs: nounwind uwtable
define internal i32 @write_to_temp(ptr noundef %0, ptr noundef %1, i64 noundef %2) #0 {
  %4 = alloca i32, align 4
  %5 = alloca ptr, align 8
  %6 = alloca ptr, align 8
  %7 = alloca i64, align 8
  %8 = alloca ptr, align 8
  %9 = alloca i64, align 8
  %10 = alloca ptr, align 8
  %11 = alloca i32, align 4
  store ptr %0, ptr %5, align 8, !tbaa !9
  store ptr %1, ptr %6, align 8, !tbaa !153
  store i64 %2, ptr %7, align 8, !tbaa !154
  call void @llvm.lifetime.start.p0(i64 8, ptr %8) #13
  %12 = load ptr, ptr %5, align 8, !tbaa !9
  %13 = getelementptr inbounds nuw %struct.archive_write, ptr %12, i32 0, i32 15
  %14 = load ptr, ptr %13, align 8, !tbaa !120
  store ptr %14, ptr %8, align 8, !tbaa !22
  call void @llvm.lifetime.start.p0(i64 8, ptr %9) #13
  call void @llvm.lifetime.start.p0(i64 8, ptr %10) #13
  %15 = load ptr, ptr %6, align 8, !tbaa !153
  store ptr %15, ptr %10, align 8, !tbaa !133
  br label %16

16:                                               ; preds = %33, %3
  %17 = load i64, ptr %7, align 8, !tbaa !154
  %18 = icmp ne i64 %17, 0
  br i1 %18, label %19, label %40

19:                                               ; preds = %16
  %20 = load ptr, ptr %8, align 8, !tbaa !22
  %21 = getelementptr inbounds nuw %struct.iso9660, ptr %20, i32 0, i32 1
  %22 = load i32, ptr %21, align 8, !tbaa !42
  %23 = load ptr, ptr %10, align 8, !tbaa !133
  %24 = load i64, ptr %7, align 8, !tbaa !154
  %25 = call i64 @write(i32 noundef %22, ptr noundef %23, i64 noundef %24)
  store i64 %25, ptr %9, align 8, !tbaa !154
  %26 = load i64, ptr %9, align 8, !tbaa !154
  %27 = icmp slt i64 %26, 0
  br i1 %27, label %28, label %33

28:                                               ; preds = %19
  %29 = load ptr, ptr %5, align 8, !tbaa !9
  %30 = getelementptr inbounds nuw %struct.archive_write, ptr %29, i32 0, i32 0
  %31 = call ptr @__errno_location() #16
  %32 = load i32, ptr %31, align 4, !tbaa !11
  call void (ptr, i32, ptr, ...) @archive_set_error(ptr noundef %30, i32 noundef %32, ptr noundef @.str.58)
  store i32 -30, ptr %4, align 4
  store i32 1, ptr %11, align 4
  br label %41

33:                                               ; preds = %19
  %34 = load i64, ptr %9, align 8, !tbaa !154
  %35 = load i64, ptr %7, align 8, !tbaa !154
  %36 = sub i64 %35, %34
  store i64 %36, ptr %7, align 8, !tbaa !154
  %37 = load i64, ptr %9, align 8, !tbaa !154
  %38 = load ptr, ptr %10, align 8, !tbaa !133
  %39 = getelementptr inbounds i8, ptr %38, i64 %37
  store ptr %39, ptr %10, align 8, !tbaa !133
  br label %16, !llvm.loop !247

40:                                               ; preds = %16
  store i32 0, ptr %4, align 4
  store i32 1, ptr %11, align 4
  br label %41

41:                                               ; preds = %40, %28
  call void @llvm.lifetime.end.p0(i64 8, ptr %10) #13
  call void @llvm.lifetime.end.p0(i64 8, ptr %9) #13
  call void @llvm.lifetime.end.p0(i64 8, ptr %8) #13
  %42 = load i32, ptr %4, align 4
  ret i32 %42
}

; Function Attrs: nounwind uwtable
define internal i32 @wb_set_offset(ptr noundef %0, i64 noundef %1) #0 {
  %3 = alloca i32, align 4
  %4 = alloca ptr, align 8
  %5 = alloca i64, align 8
  %6 = alloca ptr, align 8
  %7 = alloca i64, align 8
  %8 = alloca i64, align 8
  %9 = alloca i32, align 4
  store ptr %0, ptr %4, align 8, !tbaa !9
  store i64 %1, ptr %5, align 8, !tbaa !154
  call void @llvm.lifetime.start.p0(i64 8, ptr %6) #13
  %10 = load ptr, ptr %4, align 8, !tbaa !9
  %11 = getelementptr inbounds nuw %struct.archive_write, ptr %10, i32 0, i32 15
  %12 = load ptr, ptr %11, align 8, !tbaa !120
  store ptr %12, ptr %6, align 8, !tbaa !22
  call void @llvm.lifetime.start.p0(i64 8, ptr %7) #13
  call void @llvm.lifetime.start.p0(i64 8, ptr %8) #13
  %13 = load ptr, ptr %6, align 8, !tbaa !22
  %14 = getelementptr inbounds nuw %struct.iso9660, ptr %13, i32 0, i32 32
  %15 = load i32, ptr %14, align 8, !tbaa !54
  %16 = icmp ne i32 %15, 1
  br i1 %16, label %17, label %20

17:                                               ; preds = %2
  %18 = load ptr, ptr %4, align 8, !tbaa !9
  %19 = getelementptr inbounds nuw %struct.archive_write, ptr %18, i32 0, i32 0
  call void (ptr, i32, ptr, ...) @archive_set_error(ptr noundef %19, i32 noundef -1, ptr noundef @.str.61)
  store i32 -30, ptr %3, align 4
  store i32 1, ptr %9, align 4
  br label %167

20:                                               ; preds = %2
  %21 = load ptr, ptr %6, align 8, !tbaa !22
  %22 = getelementptr inbounds nuw %struct.iso9660, ptr %21, i32 0, i32 31
  %23 = load i64, ptr %22, align 8, !tbaa !53
  %24 = sub i64 65536, %23
  store i64 %24, ptr %7, align 8, !tbaa !154
  %25 = load ptr, ptr %6, align 8, !tbaa !22
  %26 = getelementptr inbounds nuw %struct.iso9660, ptr %25, i32 0, i32 33
  %27 = load i64, ptr %26, align 8, !tbaa !55
  %28 = load i64, ptr %7, align 8, !tbaa !154
  %29 = add nsw i64 %27, %28
  %30 = load ptr, ptr %6, align 8, !tbaa !22
  %31 = getelementptr inbounds nuw %struct.iso9660, ptr %30, i32 0, i32 35
  %32 = load i64, ptr %31, align 8, !tbaa !57
  %33 = icmp sgt i64 %29, %32
  br i1 %33, label %34, label %42

34:                                               ; preds = %20
  %35 = load ptr, ptr %6, align 8, !tbaa !22
  %36 = getelementptr inbounds nuw %struct.iso9660, ptr %35, i32 0, i32 33
  %37 = load i64, ptr %36, align 8, !tbaa !55
  %38 = load i64, ptr %7, align 8, !tbaa !154
  %39 = add nsw i64 %37, %38
  %40 = load ptr, ptr %6, align 8, !tbaa !22
  %41 = getelementptr inbounds nuw %struct.iso9660, ptr %40, i32 0, i32 35
  store i64 %39, ptr %41, align 8, !tbaa !57
  br label %42

42:                                               ; preds = %34, %20
  %43 = load ptr, ptr %6, align 8, !tbaa !22
  %44 = getelementptr inbounds nuw %struct.iso9660, ptr %43, i32 0, i32 33
  %45 = load i64, ptr %44, align 8, !tbaa !55
  %46 = load ptr, ptr %6, align 8, !tbaa !22
  %47 = getelementptr inbounds nuw %struct.iso9660, ptr %46, i32 0, i32 34
  %48 = load i64, ptr %47, align 8, !tbaa !56
  %49 = icmp slt i64 %45, %48
  br i1 %49, label %50, label %77

50:                                               ; preds = %42
  %51 = load i64, ptr %7, align 8, !tbaa !154
  %52 = icmp sgt i64 %51, 0
  br i1 %52, label %53, label %62

53:                                               ; preds = %50
  %54 = load ptr, ptr %4, align 8, !tbaa !9
  %55 = load ptr, ptr %6, align 8, !tbaa !22
  %56 = getelementptr inbounds nuw %struct.iso9660, ptr %55, i32 0, i32 30
  %57 = getelementptr inbounds [65536 x i8], ptr %56, i64 0, i64 0
  %58 = load i64, ptr %7, align 8, !tbaa !154
  %59 = call i32 @write_to_temp(ptr noundef %54, ptr noundef %57, i64 noundef %58)
  %60 = icmp ne i32 %59, 0
  br i1 %60, label %61, label %62

61:                                               ; preds = %53
  store i32 -30, ptr %3, align 4
  store i32 1, ptr %9, align 4
  br label %167

62:                                               ; preds = %53, %50
  %63 = load ptr, ptr %6, align 8, !tbaa !22
  %64 = getelementptr inbounds nuw %struct.iso9660, ptr %63, i32 0, i32 34
  %65 = load i64, ptr %64, align 8, !tbaa !56
  %66 = load ptr, ptr %6, align 8, !tbaa !22
  %67 = getelementptr inbounds nuw %struct.iso9660, ptr %66, i32 0, i32 33
  store i64 %65, ptr %67, align 8, !tbaa !55
  %68 = load ptr, ptr %6, align 8, !tbaa !22
  %69 = getelementptr inbounds nuw %struct.iso9660, ptr %68, i32 0, i32 1
  %70 = load i32, ptr %69, align 8, !tbaa !42
  %71 = load ptr, ptr %6, align 8, !tbaa !22
  %72 = getelementptr inbounds nuw %struct.iso9660, ptr %71, i32 0, i32 33
  %73 = load i64, ptr %72, align 8, !tbaa !55
  %74 = call i64 @lseek(i32 noundef %70, i64 noundef %73, i32 noundef 0) #13
  %75 = load ptr, ptr %6, align 8, !tbaa !22
  %76 = getelementptr inbounds nuw %struct.iso9660, ptr %75, i32 0, i32 31
  store i64 65536, ptr %76, align 8, !tbaa !53
  store i64 0, ptr %7, align 8, !tbaa !154
  br label %77

77:                                               ; preds = %62, %42
  %78 = load i64, ptr %5, align 8, !tbaa !154
  %79 = load ptr, ptr %6, align 8, !tbaa !22
  %80 = getelementptr inbounds nuw %struct.iso9660, ptr %79, i32 0, i32 33
  %81 = load i64, ptr %80, align 8, !tbaa !55
  %82 = icmp slt i64 %78, %81
  br i1 %82, label %83, label %103

83:                                               ; preds = %77
  %84 = load i64, ptr %7, align 8, !tbaa !154
  %85 = icmp sgt i64 %84, 0
  br i1 %85, label %86, label %92

86:                                               ; preds = %83
  %87 = load ptr, ptr %4, align 8, !tbaa !9
  %88 = call i32 @wb_write_out(ptr noundef %87)
  %89 = icmp ne i32 %88, 0
  br i1 %89, label %90, label %91

90:                                               ; preds = %86
  store i32 -30, ptr %3, align 4
  store i32 1, ptr %9, align 4
  br label %167

91:                                               ; preds = %86
  br label %92

92:                                               ; preds = %91, %83
  %93 = load ptr, ptr %6, align 8, !tbaa !22
  %94 = getelementptr inbounds nuw %struct.iso9660, ptr %93, i32 0, i32 1
  %95 = load i32, ptr %94, align 8, !tbaa !42
  %96 = load i64, ptr %5, align 8, !tbaa !154
  %97 = call i64 @lseek(i32 noundef %95, i64 noundef %96, i32 noundef 0) #13
  %98 = load i64, ptr %5, align 8, !tbaa !154
  %99 = load ptr, ptr %6, align 8, !tbaa !22
  %100 = getelementptr inbounds nuw %struct.iso9660, ptr %99, i32 0, i32 33
  store i64 %98, ptr %100, align 8, !tbaa !55
  %101 = load ptr, ptr %6, align 8, !tbaa !22
  %102 = getelementptr inbounds nuw %struct.iso9660, ptr %101, i32 0, i32 31
  store i64 65536, ptr %102, align 8, !tbaa !53
  br label %166

103:                                              ; preds = %77
  %104 = load i64, ptr %5, align 8, !tbaa !154
  %105 = load ptr, ptr %6, align 8, !tbaa !22
  %106 = getelementptr inbounds nuw %struct.iso9660, ptr %105, i32 0, i32 35
  %107 = load i64, ptr %106, align 8, !tbaa !57
  %108 = icmp sle i64 %104, %107
  br i1 %108, label %109, label %118

109:                                              ; preds = %103
  %110 = load i64, ptr %5, align 8, !tbaa !154
  %111 = load ptr, ptr %6, align 8, !tbaa !22
  %112 = getelementptr inbounds nuw %struct.iso9660, ptr %111, i32 0, i32 33
  %113 = load i64, ptr %112, align 8, !tbaa !55
  %114 = sub nsw i64 %110, %113
  %115 = sub i64 65536, %114
  %116 = load ptr, ptr %6, align 8, !tbaa !22
  %117 = getelementptr inbounds nuw %struct.iso9660, ptr %116, i32 0, i32 31
  store i64 %115, ptr %117, align 8, !tbaa !53
  br label %165

118:                                              ; preds = %103
  %119 = load i64, ptr %5, align 8, !tbaa !154
  %120 = load ptr, ptr %6, align 8, !tbaa !22
  %121 = getelementptr inbounds nuw %struct.iso9660, ptr %120, i32 0, i32 35
  %122 = load i64, ptr %121, align 8, !tbaa !57
  %123 = sub nsw i64 %119, %122
  store i64 %123, ptr %8, align 8, !tbaa !154
  %124 = load ptr, ptr %6, align 8, !tbaa !22
  %125 = getelementptr inbounds nuw %struct.iso9660, ptr %124, i32 0, i32 35
  %126 = load i64, ptr %125, align 8, !tbaa !57
  %127 = load ptr, ptr %6, align 8, !tbaa !22
  %128 = getelementptr inbounds nuw %struct.iso9660, ptr %127, i32 0, i32 33
  %129 = load i64, ptr %128, align 8, !tbaa !55
  %130 = sub nsw i64 %126, %129
  %131 = sub i64 65536, %130
  %132 = load ptr, ptr %6, align 8, !tbaa !22
  %133 = getelementptr inbounds nuw %struct.iso9660, ptr %132, i32 0, i32 31
  store i64 %131, ptr %133, align 8, !tbaa !53
  br label %134

134:                                              ; preds = %148, %118
  %135 = load i64, ptr %8, align 8, !tbaa !154
  %136 = load ptr, ptr %6, align 8, !tbaa !22
  %137 = getelementptr inbounds nuw %struct.iso9660, ptr %136, i32 0, i32 31
  %138 = load i64, ptr %137, align 8, !tbaa !53
  %139 = icmp sge i64 %135, %138
  br i1 %139, label %140, label %154

140:                                              ; preds = %134
  %141 = load ptr, ptr %4, align 8, !tbaa !9
  %142 = load ptr, ptr %6, align 8, !tbaa !22
  %143 = getelementptr inbounds nuw %struct.iso9660, ptr %142, i32 0, i32 31
  %144 = load i64, ptr %143, align 8, !tbaa !53
  %145 = call i32 @write_null(ptr noundef %141, i64 noundef %144)
  %146 = icmp ne i32 %145, 0
  br i1 %146, label %147, label %148

147:                                              ; preds = %140
  store i32 -30, ptr %3, align 4
  store i32 1, ptr %9, align 4
  br label %167

148:                                              ; preds = %140
  %149 = load ptr, ptr %6, align 8, !tbaa !22
  %150 = getelementptr inbounds nuw %struct.iso9660, ptr %149, i32 0, i32 31
  %151 = load i64, ptr %150, align 8, !tbaa !53
  %152 = load i64, ptr %8, align 8, !tbaa !154
  %153 = sub i64 %152, %151
  store i64 %153, ptr %8, align 8, !tbaa !154
  br label %134, !llvm.loop !262

154:                                              ; preds = %134
  %155 = load i64, ptr %8, align 8, !tbaa !154
  %156 = icmp sgt i64 %155, 0
  br i1 %156, label %157, label %164

157:                                              ; preds = %154
  %158 = load ptr, ptr %4, align 8, !tbaa !9
  %159 = load i64, ptr %8, align 8, !tbaa !154
  %160 = call i32 @write_null(ptr noundef %158, i64 noundef %159)
  %161 = icmp ne i32 %160, 0
  br i1 %161, label %162, label %163

162:                                              ; preds = %157
  store i32 -30, ptr %3, align 4
  store i32 1, ptr %9, align 4
  br label %167

163:                                              ; preds = %157
  br label %164

164:                                              ; preds = %163, %154
  br label %165

165:                                              ; preds = %164, %109
  br label %166

166:                                              ; preds = %165, %92
  store i32 0, ptr %3, align 4
  store i32 1, ptr %9, align 4
  br label %167

167:                                              ; preds = %166, %162, %147, %90, %61, %17
  call void @llvm.lifetime.end.p0(i64 8, ptr %8) #13
  call void @llvm.lifetime.end.p0(i64 8, ptr %7) #13
  call void @llvm.lifetime.end.p0(i64 8, ptr %6) #13
  %168 = load i32, ptr %3, align 4
  ret i32 %168
}