; Function Attrs: nounwind uwtable
define internal fastcc range(i32 -30, 1) i32 @wb_set_offset(ptr noundef %0, i64 noundef %1) unnamed_addr #0 {
  %3 = getelementptr inbounds nuw i8, ptr %0, i64 248
  %4 = load ptr, ptr %3, align 8, !tbaa !69
  %5 = getelementptr inbounds nuw i8, ptr %4, i64 66280
  %6 = load i32, ptr %5, align 8, !tbaa !51
  %.not = icmp eq i32 %6, 1
  br i1 %.not, label %8, label %7

7:                                                ; preds = %2
  tail call void (ptr, i32, ptr, ...) @archive_set_error(ptr noundef nonnull %0, i32 noundef -1, ptr noundef nonnull @.str.61) #23
  br label %.loopexit

8:                                                ; preds = %2
  %9 = getelementptr inbounds nuw i8, ptr %4, i64 66272
  %10 = load i64, ptr %9, align 8, !tbaa !50
  %11 = sub i64 65536, %10
  %12 = getelementptr inbounds nuw i8, ptr %4, i64 66288
  %13 = load i64, ptr %12, align 8, !tbaa !108
  %14 = add nsw i64 %13, %11
  %15 = getelementptr inbounds nuw i8, ptr %4, i64 66304
  %16 = load i64, ptr %15, align 8, !tbaa !266
  %17 = icmp sgt i64 %14, %16
  br i1 %17, label %18, label %19

18:                                               ; preds = %8
  store i64 %14, ptr %15, align 8, !tbaa !266
  br label %19

19:                                               ; preds = %18, %8
  %20 = phi i64 [ %14, %18 ], [ %16, %8 ]
  %21 = getelementptr inbounds nuw i8, ptr %4, i64 66296
  %22 = load i64, ptr %21, align 8, !tbaa !254
  %23 = icmp slt i64 %13, %22
  br i1 %23, label %24, label %37

24:                                               ; preds = %19
  %25 = icmp sgt i64 %11, 0
  br i1 %25, label %.lr.ph.i, label %.thread

.lr.ph.i:                                         ; preds = %24
  %26 = getelementptr inbounds nuw i8, ptr %4, i64 732
  %27 = getelementptr inbounds nuw i8, ptr %4, i64 8
  br label %28

28:                                               ; preds = %32, %.lr.ph.i
  %.017.i = phi ptr [ %26, %.lr.ph.i ], [ %34, %32 ]
  %.01316.i = phi i64 [ %11, %.lr.ph.i ], [ %33, %32 ]
  %29 = load i32, ptr %27, align 8, !tbaa !35
  %30 = tail call i64 @write(i32 noundef %29, ptr noundef %.017.i, i64 noundef %.01316.i) #23
  %31 = icmp slt i64 %30, 0
  br i1 %31, label %write_to_temp.exit, label %32

32:                                               ; preds = %28
  %33 = sub i64 %.01316.i, %30
  %34 = getelementptr inbounds nuw i8, ptr %.017.i, i64 %30
  %.not.i = icmp eq i64 %33, 0
  br i1 %.not.i, label %.thread.loopexit, label %28, !llvm.loop !216

write_to_temp.exit:                               ; preds = %28
  %35 = tail call ptr @__errno_location() #26
  %36 = load i32, ptr %35, align 4, !tbaa !101
  tail call void (ptr, i32, ptr, ...) @archive_set_error(ptr noundef %0, i32 noundef %36, ptr noundef nonnull @.str.58) #23
  br label %.loopexit

37:                                               ; preds = %19
  %38 = icmp slt i64 %1, %13
  br i1 %38, label %45, label %52

.thread.loopexit:                                 ; preds = %32
  %.pre = load i64, ptr %21, align 8, !tbaa !254
  br label %.thread

.thread:                                          ; preds = %.thread.loopexit, %24
  %39 = phi i64 [ %.pre, %.thread.loopexit ], [ %22, %24 ]
  store i64 %39, ptr %12, align 8, !tbaa !108
  %40 = getelementptr inbounds nuw i8, ptr %4, i64 8
  %41 = load i32, ptr %40, align 8, !tbaa !35
  %42 = tail call i64 @lseek(i32 noundef %41, i64 noundef %39, i32 noundef 0) #23
  store i64 65536, ptr %9, align 8, !tbaa !50
  %43 = load i64, ptr %12, align 8, !tbaa !108
  %44 = icmp slt i64 %1, %43
  br i1 %44, label %.thread68, label %.thread._crit_edge

.thread._crit_edge:                               ; preds = %.thread
  %.pre75 = load i64, ptr %15, align 8, !tbaa !266
  br label %52

45:                                               ; preds = %37
  %46 = icmp sgt i64 %11, 0
  br i1 %46, label %47, label %.thread68

47:                                               ; preds = %45
  %48 = tail call fastcc i32 @wb_write_out(ptr noundef nonnull %0)
  %.not63 = icmp eq i32 %48, 0
  br i1 %.not63, label %.thread68, label %.loopexit

.thread68:                                        ; preds = %.thread, %47, %45
  %49 = getelementptr inbounds nuw i8, ptr %4, i64 8
  %50 = load i32, ptr %49, align 8, !tbaa !35
  %51 = tail call i64 @lseek(i32 noundef %50, i64 noundef %1, i32 noundef 0) #23
  store i64 %1, ptr %12, align 8, !tbaa !108
  br label %.sink.split

52:                                               ; preds = %.thread._crit_edge, %37
  %53 = phi i64 [ %.pre75, %.thread._crit_edge ], [ %20, %37 ]
  %54 = phi i64 [ %43, %.thread._crit_edge ], [ %13, %37 ]
  %.not58 = icmp sgt i64 %1, %53
  br i1 %.not58, label %57, label %55

55:                                               ; preds = %52
  %reass.sub = sub i64 %54, %1
  %56 = add i64 %reass.sub, 65536
  br label %.sink.split

57:                                               ; preds = %52
  %58 = sub nsw i64 %1, %53
  %.neg = add i64 %54, 65536
  %59 = sub i64 %.neg, %53
  store i64 %59, ptr %9, align 8, !tbaa !50
  %.not5973 = icmp slt i64 %58, %59
  br i1 %.not5973, label %._crit_edge, label %.lr.ph

.lr.ph:                                           ; preds = %57, %62
  %60 = phi i64 [ %63, %62 ], [ %59, %57 ]
  %.074 = phi i64 [ %64, %62 ], [ %58, %57 ]
  %61 = tail call fastcc i32 @write_null(ptr noundef %0, i64 noundef %60)
  %.not61 = icmp eq i32 %61, 0
  br i1 %.not61, label %62, label %.loopexit

62:                                               ; preds = %.lr.ph
  %63 = load i64, ptr %9, align 8, !tbaa !50
  %64 = sub i64 %.074, %63
  %.not59 = icmp slt i64 %64, %63
  br i1 %.not59, label %._crit_edge, label %.lr.ph, !llvm.loop !267

._crit_edge:                                      ; preds = %62, %57
  %.0.lcssa = phi i64 [ %58, %57 ], [ %64, %62 ]
  %65 = icmp sgt i64 %.0.lcssa, 0
  br i1 %65, label %66, label %68

66:                                               ; preds = %._crit_edge
  %67 = tail call fastcc i32 @write_null(ptr noundef %0, i64 noundef %.0.lcssa)
  %.not60 = icmp eq i32 %67, 0
  br i1 %.not60, label %68, label %.loopexit

.sink.split:                                      ; preds = %.thread68, %55
  %.sink = phi i64 [ %56, %55 ], [ 65536, %.thread68 ]
  store i64 %.sink, ptr %9, align 8, !tbaa !50
  br label %68

68:                                               ; preds = %.sink.split, %66, %._crit_edge
  br label %.loopexit

.loopexit:                                        ; preds = %.lr.ph, %write_to_temp.exit, %66, %47, %68, %7
  %.050 = phi i32 [ -30, %7 ], [ 0, %68 ], [ -30, %write_to_temp.exit ], [ -30, %47 ], [ -30, %66 ], [ -30, %.lr.ph ]
  ret i32 %.050
}